target datalayout = "e-m:e-p270:32:32-p271:32:32-p272:64:64-i64:64-i128:128-f80:128-n8:16:32:64-S128"
target triple = "x86_64-pc-linux-gnu"

%"struct.Luau::Position" = type { i32, i32 }

; Function Attrs: mustprogress nounwind uwtable
define dso_local noundef zeroext i1 @_ZNK4Luau8PositiongtERKS0_(ptr noundef nonnull align 4 dereferenceable(8) %0, ptr noundef nonnull align 4 dereferenceable(8) %1) #0 align 2 {
  %3 = alloca i1, align 1
  %4 = alloca ptr, align 8
  %5 = alloca ptr, align 8
  store ptr %0, ptr %4, align 8
  store ptr %1, ptr %5, align 8
  %6 = load ptr, ptr %4, align 8
  %7 = getelementptr inbounds %"struct.Luau::Position", ptr %6, i32 0, i32 0
  %8 = load i32, ptr %7, align 4
  %9 = load ptr, ptr %5, align 8
  %10 = getelementptr inbounds %"struct.Luau::Position", ptr %9, i32 0, i32 0
  %11 = load i32, ptr %10, align 4
  %12 = icmp eq i32 %8, %11
  br i1 %12, label %13, label %20

13:                                               ; preds = %2
  %14 = getelementptr inbounds %"struct.Luau::Position", ptr %6, i32 0, i32 1
  %15 = load i32, ptr %14, align 4
  %16 = load ptr, ptr %5, align 8
  %17 = getelementptr inbounds %"struct.Luau::Position", ptr %16, i32 0, i32 1
  %18 = load i32, ptr %17, align 4
  %19 = icmp ugt i32 %15, %18
  store i1 %19, ptr %3, align 1
  br label %27

20:                                               ; preds = %2
  %21 = getelementptr inbounds %"struct.Luau::Position", ptr %6, i32 0, i32 0
  %22 = load i32, ptr %21, align 4
  %23 = load ptr, ptr %5, align 8
  %24 = getelementptr inbounds %"struct.Luau::Position", ptr %23, i32 0, i32 0
  %25 = load i32, ptr %24, align 4
  %26 = icmp ugt i32 %22, %25
  store i1 %26, ptr %3, align 1
  br label %27

27:                                               ; preds = %20, %13
  %28 = load i1, ptr %3, align 1
  ret i1 %28
}