; Function Attrs: mustprogress nofree norecurse nosync nounwind willreturn memory(argmem: read) uwtable
define dso_local noundef zeroext i1 @_ZNK4Luau8PositiongtERKS0_(ptr nocapture noundef nonnull readonly align 4 dereferenceable(8) %0, ptr nocapture noundef nonnull readonly align 4 dereferenceable(8) %1) local_unnamed_addr #0 align 2 {
  %3 = load i32, ptr %0, align 4
  %4 = load i32, ptr %1, align 4
  %5 = icmp eq i32 %3, %4
  %6 = getelementptr inbounds i8, ptr %0, i64 4
  %7 = load i32, ptr %6, align 4
  %8 = getelementptr inbounds i8, ptr %1, i64 4
  %9 = load i32, ptr %8, align 4
  %10 = icmp ugt i32 %7, %9
  %11 = icmp ugt i32 %3, %4
  %.0 = select i1 %5, i1 %10, i1 %11
  ret i1 %.0
}